ARM GAS  C:\Users\Rahul\AppData\Local\Temp\ccIhg8OU.s 			page 1


   1              		.syntax unified
   2              		.cpu cortex-m3
   3              		.fpu softvfp
   4              		.eabi_attribute 20, 1
   5              		.eabi_attribute 21, 1
   6              		.eabi_attribute 23, 3
   7              		.eabi_attribute 24, 1
   8              		.eabi_attribute 25, 1
   9              		.eabi_attribute 26, 1
  10              		.eabi_attribute 30, 1
  11              		.eabi_attribute 34, 1
  12              		.eabi_attribute 18, 4
  13              		.thumb
  14              		.file	"ESP8266.c"
  15              		.text
  16              	.Ltext0:
  17              		.cfi_sections	.debug_frame
  18              		.section	.text.ESP8266_Request,"ax",%progbits
  19              		.align	2
  20              		.thumb
  21              		.thumb_func
  22              		.type	ESP8266_Request, %function
  23              	ESP8266_Request:
  24              	.LFB65:
  25              		.file 1 "ESP8266.c"
   1:ESP8266.c     **** /* ========================================
   2:ESP8266.c     ****  *
   3:ESP8266.c     ****  * Copyright YOUR COMPANY, THE YEAR
   4:ESP8266.c     ****  * All Rights Reserved
   5:ESP8266.c     ****  * UNPUBLISHED, LICENSED SOFTWARE.
   6:ESP8266.c     ****  *
   7:ESP8266.c     ****  * CONFIDENTIAL AND PROPRIETARY INFORMATION
   8:ESP8266.c     ****  * WHICH IS THE PROPERTY OF your company.
   9:ESP8266.c     ****  *
  10:ESP8266.c     ****  * ========================================
  11:ESP8266.c     **** */
  12:ESP8266.c     **** #include <stdio.h>
  13:ESP8266.c     **** #include <stdint.h>
  14:ESP8266.c     **** #include <string.h>
  15:ESP8266.c     **** #include "ESP8266_Config.h"
  16:ESP8266.c     **** #include "ESP8266.h"
  17:ESP8266.c     **** #include "project.h"
  18:ESP8266.c     **** 
  19:ESP8266.c     **** #define RESPONSE_BUF_LEN (1024)
  20:ESP8266.c     **** 
  21:ESP8266.c     **** static char cRequest[1024]    = {0};
  22:ESP8266.c     **** 
  23:ESP8266.c     **** static int32_t ESP8266_Request(char *request);
  24:ESP8266.c     **** 
  25:ESP8266.c     **** static int32_t ESP8266_SendData(uint8_t *buffer, uint16_t length);
  26:ESP8266.c     **** 
  27:ESP8266.c     **** static int32_t ESP8266_Await_Response(char *positive_response, char *negative_response);
  28:ESP8266.c     **** 
  29:ESP8266.c     **** static int32_t ESP8266_Await_Response_Not(uint8_t *buffer, uint16_t *length, char *negative_respons
  30:ESP8266.c     **** 
  31:ESP8266.c     **** static int32_t ESP8266_Read_Response(uint8_t *buffer, uint16_t *length);
  32:ESP8266.c     **** 
ARM GAS  C:\Users\Rahul\AppData\Local\Temp\ccIhg8OU.s 			page 2


  33:ESP8266.c     **** static int32_t ESP8266_Check_Response(uint8_t *buffer, uint16_t length, char *expected_resp);
  34:ESP8266.c     **** 
  35:ESP8266.c     **** circular_buffer_t rx_buffer;
  36:ESP8266.c     **** 
  37:ESP8266.c     **** #if 0
  38:ESP8266.c     **** static uint8_t  ip_addr[128];
  39:ESP8266.c     **** static uint16_t ip_addr_len;
  40:ESP8266.c     **** #endif
  41:ESP8266.c     **** 
  42:ESP8266.c     **** int32_t ESP8266_Init()
  43:ESP8266.c     **** {
  44:ESP8266.c     ****     rx_buffer.mnWR      = 0;
  45:ESP8266.c     ****     rx_buffer.mnRD      = 0;
  46:ESP8266.c     ****     rx_buffer.mnCount   = 0;
  47:ESP8266.c     ****     
  48:ESP8266.c     ****     WIFIdev_Channel_Start();
  49:ESP8266.c     ****         
  50:ESP8266.c     ****     WIFIdev_Channel_ClearRxBuffer();
  51:ESP8266.c     ****     WIFIdev_Channel_ClearTxBuffer();
  52:ESP8266.c     ****     
  53:ESP8266.c     ****     WIFIdev_Channel_EnableRxInt();
  54:ESP8266.c     ****     
  55:ESP8266.c     ****     WIFIdev_Channel_RxISR_Start();
  56:ESP8266.c     ****     WIFIdev_Channel_RxISR_Enable();
  57:ESP8266.c     ****        
  58:ESP8266.c     ****     /** Sending Attention Command **/
  59:ESP8266.c     ****     LOG_PutString("\nCMD - AT...");
  60:ESP8266.c     ****     
  61:ESP8266.c     ****     strcpy(cRequest, REQUEST_AT);
  62:ESP8266.c     ****     strcat(cRequest, ESP8266_EOP);
  63:ESP8266.c     ****     
  64:ESP8266.c     ****     ESP8266_Request(cRequest);
  65:ESP8266.c     ****     if (0 > ESP8266_Await_Response(RESPONSE_OK, RESPONSE_ERROR))
  66:ESP8266.c     ****     {
  67:ESP8266.c     ****         LOG_PutString("\nCMD - AT - FAILED");
  68:ESP8266.c     ****         return -1;
  69:ESP8266.c     ****     }
  70:ESP8266.c     **** 
  71:ESP8266.c     ****     /** Setting Mode - STA **/ 
  72:ESP8266.c     ****     LOG_PutString("\nCMD - MODE...");
  73:ESP8266.c     ****     
  74:ESP8266.c     ****     strcpy(cRequest, REQUEST_CWMODE_SET);
  75:ESP8266.c     ****     strcat(cRequest, REQUEST_MODE_STA);
  76:ESP8266.c     ****     strcat(cRequest, ESP8266_EOP);
  77:ESP8266.c     ****     
  78:ESP8266.c     ****     ESP8266_Request(cRequest);
  79:ESP8266.c     ****     if (0 > ESP8266_Await_Response(RESPONSE_OK, RESPONSE_ERROR))
  80:ESP8266.c     ****     {
  81:ESP8266.c     ****         LOG_PutString("\nCMD - MODE - FAILED");
  82:ESP8266.c     ****         return -1;
  83:ESP8266.c     ****     }
  84:ESP8266.c     ****        
  85:ESP8266.c     ****     /** Setting DHCP - disable **/ 
  86:ESP8266.c     ****     LOG_PutString("\nCMD - DHCP...");
  87:ESP8266.c     ****     
  88:ESP8266.c     ****     strcpy(cRequest, REQUEST_CWDHCP_SET);
  89:ESP8266.c     ****     strcat(cRequest, REQUEST_MODE_STA);
ARM GAS  C:\Users\Rahul\AppData\Local\Temp\ccIhg8OU.s 			page 3


  90:ESP8266.c     ****     strcat(cRequest, REQUEST_FIELD_SEPARATOR);
  91:ESP8266.c     ****     strcat(cRequest, REQUEST_DHCP_DISABLE);
  92:ESP8266.c     ****     strcat(cRequest, ESP8266_EOP);
  93:ESP8266.c     ****     
  94:ESP8266.c     ****     ESP8266_Request(cRequest);
  95:ESP8266.c     ****     if (0 > ESP8266_Await_Response(RESPONSE_OK, RESPONSE_ERROR))
  96:ESP8266.c     ****     {
  97:ESP8266.c     ****         LOG_PutString("\nCMD - DHCP : FAILED");
  98:ESP8266.c     ****         return -1;
  99:ESP8266.c     ****     }
 100:ESP8266.c     ****     
 101:ESP8266.c     ****     /** Joining AP **/ 
 102:ESP8266.c     ****     LOG_PutString("\nCMD - JAP...");
 103:ESP8266.c     ****     
 104:ESP8266.c     ****     strcpy(cRequest, REQUEST_CWJAP_SET);
 105:ESP8266.c     ****     strcat(cRequest, AP_SSID);
 106:ESP8266.c     ****     strcat(cRequest, REQUEST_FIELD_SEPARATOR);
 107:ESP8266.c     ****     strcat(cRequest, AP_PASSWD);
 108:ESP8266.c     ****     strcat(cRequest, ESP8266_EOP);
 109:ESP8266.c     ****     
 110:ESP8266.c     ****     ESP8266_Request(cRequest);
 111:ESP8266.c     ****         
 112:ESP8266.c     ****     if (0 > ESP8266_Await_Response(RESPONSE_AP_CONNECTED, RESPONSE_ERROR))
 113:ESP8266.c     ****     {
 114:ESP8266.c     ****         LOG_PutString("\nCMD - JAP : FAILED");
 115:ESP8266.c     ****         return -1;
 116:ESP8266.c     ****     }
 117:ESP8266.c     ****     
 118:ESP8266.c     ****     LOG_PutString("\nCMD - JAP : Connected to AP");
 119:ESP8266.c     ****     
 120:ESP8266.c     ****     if (0 > ESP8266_Await_Response(RESPONSE_IP_ACQUIRED, RESPONSE_AP_DISCONNECTED))
 121:ESP8266.c     ****     {
 122:ESP8266.c     ****         LOG_PutString("\nCMD - JAP : FAILED");
 123:ESP8266.c     ****         return -1;
 124:ESP8266.c     ****     }
 125:ESP8266.c     ****     
 126:ESP8266.c     ****     LOG_PutString("\nCMD - JAP : Acquired IP");
 127:ESP8266.c     ****     
 128:ESP8266.c     ****     if (0 > ESP8266_Await_Response(RESPONSE_OK, RESPONSE_AP_DISCONNECTED))
 129:ESP8266.c     ****     {
 130:ESP8266.c     ****         LOG_PutString("\nCMD - JAP : FAILED");
 131:ESP8266.c     ****         return -1;
 132:ESP8266.c     ****     }
 133:ESP8266.c     ****     
 134:ESP8266.c     ****     LOG_PutString("\nCMD - JAP : Connection Stable");
 135:ESP8266.c     ****  
 136:ESP8266.c     ****     /** Creating Connection **/ 
 137:ESP8266.c     ****     LOG_PutString("\nCMD - IPSTART...");
 138:ESP8266.c     ****     
 139:ESP8266.c     ****     strcpy(cRequest, REQUEST_CIPSTART_SET);
 140:ESP8266.c     ****     strcat(cRequest, TRANSPORT_TYPE);
 141:ESP8266.c     ****     strcat(cRequest, REQUEST_FIELD_SEPARATOR);
 142:ESP8266.c     ****     strcat(cRequest, SERVER_ADDR);
 143:ESP8266.c     ****     strcat(cRequest, REQUEST_FIELD_SEPARATOR);
 144:ESP8266.c     ****     strcat(cRequest, SERVER_PORT);
 145:ESP8266.c     ****     strcat(cRequest, ESP8266_EOP);
 146:ESP8266.c     ****     
ARM GAS  C:\Users\Rahul\AppData\Local\Temp\ccIhg8OU.s 			page 4


 147:ESP8266.c     ****     ESP8266_Request(cRequest);
 148:ESP8266.c     ****     if (0 > ESP8266_Await_Response(RESPONSE_TCP_CONNECTED, RESPONSE_ERROR))
 149:ESP8266.c     ****     {
 150:ESP8266.c     ****         /**
 151:ESP8266.c     ****          If it fails here,
 152:ESP8266.c     ****          check if there is a $(TRANSPORT_TYPE) server running at $(SERVER_ADDR):$(SERVER_PORT)
 153:ESP8266.c     ****         **/
 154:ESP8266.c     ****         LOG_PutString("\nCMD - IPSTART : FAILED");
 155:ESP8266.c     ****         return -1;
 156:ESP8266.c     ****     }
 157:ESP8266.c     ****     
 158:ESP8266.c     ****     if (0 > ESP8266_Await_Response(RESPONSE_OK, RESPONSE_TCP_CLOSED))
 159:ESP8266.c     ****     {
 160:ESP8266.c     ****         LOG_PutString("\nCMD - IPSTART : FAILED");
 161:ESP8266.c     ****         return -1;
 162:ESP8266.c     ****     }
 163:ESP8266.c     ****     
 164:ESP8266.c     ****     return 0;
 165:ESP8266.c     **** }
 166:ESP8266.c     **** 
 167:ESP8266.c     **** int32_t ESP8266_Send(uint8_t *buffer, uint16_t length)
 168:ESP8266.c     **** {
 169:ESP8266.c     ****     sprintf(cRequest, "%s%d%s", REQUEST_CIPSEND, length, ESP8266_EOP);
 170:ESP8266.c     ****     
 171:ESP8266.c     ****     ESP8266_Request(cRequest);
 172:ESP8266.c     ****     if (0 > ESP8266_Await_Response(RESPONSE_OK, RESPONSE_ERROR))
 173:ESP8266.c     ****     {
 174:ESP8266.c     ****         LOG_PutString("\nCMD - SEND : FAILED");
 175:ESP8266.c     ****         return -1;
 176:ESP8266.c     ****     }
 177:ESP8266.c     ****     
 178:ESP8266.c     ****     ESP8266_SendData(buffer, length);
 179:ESP8266.c     ****     if (0 > ESP8266_Await_Response(RESPONSE_SEND_OK, RESPONSE_SEND_ERROR))
 180:ESP8266.c     ****     {
 181:ESP8266.c     ****         LOG_PutString("\nCMD - SEND : FAILED");
 182:ESP8266.c     ****         return -1;
 183:ESP8266.c     ****     }
 184:ESP8266.c     ****    
 185:ESP8266.c     ****     return length;
 186:ESP8266.c     **** }
 187:ESP8266.c     **** 
 188:ESP8266.c     **** static int32_t ESP8266_Request(char *request)
 189:ESP8266.c     **** {
  26              		.loc 1 189 0
  27              		.cfi_startproc
  28              		@ args = 0, pretend = 0, frame = 0
  29              		@ frame_needed = 0, uses_anonymous_args = 0
  30              	.LVL0:
  31 0000 08B5     		push	{r3, lr}
  32              		.cfi_def_cfa_offset 8
  33              		.cfi_offset 3, -8
  34              		.cfi_offset 14, -4
 190:ESP8266.c     ****     WIFIdev_Channel_PutString(request);
  35              		.loc 1 190 0
  36 0002 FFF7FEFF 		bl	WIFIdev_Channel_PutString
  37              	.LVL1:
 191:ESP8266.c     ****     
ARM GAS  C:\Users\Rahul\AppData\Local\Temp\ccIhg8OU.s 			page 5


 192:ESP8266.c     ****     return 0;
 193:ESP8266.c     **** }
  38              		.loc 1 193 0
  39 0006 0020     		movs	r0, #0
  40 0008 08BD     		pop	{r3, pc}
  41              		.cfi_endproc
  42              	.LFE65:
  43              		.size	ESP8266_Request, .-ESP8266_Request
  44 000a 00BF     		.section	.text.ESP8266_Read_Response,"ax",%progbits
  45              		.align	2
  46              		.thumb
  47              		.thumb_func
  48              		.type	ESP8266_Read_Response, %function
  49              	ESP8266_Read_Response:
  50              	.LFB69:
 194:ESP8266.c     **** 
 195:ESP8266.c     **** static int32_t ESP8266_SendData(uint8_t *buffer, uint16_t length)
 196:ESP8266.c     **** {
 197:ESP8266.c     ****     WIFIdev_Channel_PutArray(buffer, length);
 198:ESP8266.c     ****     
 199:ESP8266.c     ****     return 0;
 200:ESP8266.c     **** }
 201:ESP8266.c     **** 
 202:ESP8266.c     **** static int32_t  ESP8266_Await_Response(char *positive_response, char *negative_response)
 203:ESP8266.c     **** {
 204:ESP8266.c     ****     uint16_t len = 0, i = 0;
 205:ESP8266.c     ****     uint8_t response_buffer[RESPONSE_BUF_LEN]    = {0};
 206:ESP8266.c     ****     
 207:ESP8266.c     ****     do
 208:ESP8266.c     ****     {
 209:ESP8266.c     ****         len = RESPONSE_BUF_LEN;
 210:ESP8266.c     ****         
 211:ESP8266.c     ****         if (0 != ESP8266_Read_Response(response_buffer, &len))
 212:ESP8266.c     ****         {
 213:ESP8266.c     ****             LOG_PutString("\n[WIFIdev] Read Error");
 214:ESP8266.c     ****             break;
 215:ESP8266.c     ****         }
 216:ESP8266.c     ****         else
 217:ESP8266.c     ****         {
 218:ESP8266.c     ****             #if 0
 219:ESP8266.c     ****             LOG_PutString("\nChecking, ");
 220:ESP8266.c     ****             LOG_PutString(response_buffer);
 221:ESP8266.c     ****             LOG_PutString(" = ");
 222:ESP8266.c     ****             LOG_PutString(positive_response);
 223:ESP8266.c     ****             #endif
 224:ESP8266.c     ****             
 225:ESP8266.c     ****             if (1 == ESP8266_Check_Response(response_buffer, len, positive_response))
 226:ESP8266.c     ****             {
 227:ESP8266.c     ****                 //LOG_PutString("\n[WIFIdev] Recvd : Positive Response");
 228:ESP8266.c     ****                 return 0;
 229:ESP8266.c     ****             }
 230:ESP8266.c     ****             else if (1 == ESP8266_Check_Response(response_buffer, len, negative_response))
 231:ESP8266.c     ****             {
 232:ESP8266.c     ****                 LOG_PutString("\n[WIFIdev] Recvd :  Negative Response");
 233:ESP8266.c     ****                 return -1;
 234:ESP8266.c     ****             }
 235:ESP8266.c     ****         }
ARM GAS  C:\Users\Rahul\AppData\Local\Temp\ccIhg8OU.s 			page 6


 236:ESP8266.c     ****     } while (1 == 1);
 237:ESP8266.c     **** }
 238:ESP8266.c     **** 
 239:ESP8266.c     **** static int32_t ESP8266_Await_Response_Not(uint8_t *buffer, uint16_t *length, char *negative_respons
 240:ESP8266.c     **** {
 241:ESP8266.c     ****      uint16_t len = 0, i = 0;
 242:ESP8266.c     ****     
 243:ESP8266.c     ****     do
 244:ESP8266.c     ****     {
 245:ESP8266.c     ****         len = *length;
 246:ESP8266.c     ****         
 247:ESP8266.c     ****         if (0 != ESP8266_Read_Response(buffer, &len))
 248:ESP8266.c     ****         {
 249:ESP8266.c     ****             LOG_PutString("\n[WIFIdev] Read Error");
 250:ESP8266.c     ****             break;
 251:ESP8266.c     ****         }
 252:ESP8266.c     ****         else
 253:ESP8266.c     ****         {
 254:ESP8266.c     ****             #if 0
 255:ESP8266.c     ****             LOG_PutString("\nChecking, ");
 256:ESP8266.c     ****             LOG_PutString(response_buffer);
 257:ESP8266.c     ****             LOG_PutString(" = ");
 258:ESP8266.c     ****             LOG_PutString(positive_response);
 259:ESP8266.c     ****             #endif
 260:ESP8266.c     ****             
 261:ESP8266.c     ****             if (0 == ESP8266_Check_Response(buffer, len, negative_response))
 262:ESP8266.c     ****             {
 263:ESP8266.c     ****                 break;
 264:ESP8266.c     ****             }
 265:ESP8266.c     ****         }
 266:ESP8266.c     ****     } while (1 == 1);
 267:ESP8266.c     **** 
 268:ESP8266.c     ****     *length = len;
 269:ESP8266.c     **** }
 270:ESP8266.c     **** 
 271:ESP8266.c     **** static int32_t ESP8266_Read_Response(uint8_t *buffer, uint16_t *length)
 272:ESP8266.c     **** {
  51              		.loc 1 272 0
  52              		.cfi_startproc
  53              		@ args = 0, pretend = 0, frame = 0
  54              		@ frame_needed = 0, uses_anonymous_args = 0
  55              	.LVL2:
  56 0000 F8B5     		push	{r3, r4, r5, r6, r7, lr}
  57              		.cfi_def_cfa_offset 24
  58              		.cfi_offset 3, -24
  59              		.cfi_offset 4, -20
  60              		.cfi_offset 5, -16
  61              		.cfi_offset 6, -12
  62              		.cfi_offset 7, -8
  63              		.cfi_offset 14, -4
  64 0002 0546     		mov	r5, r0
  65 0004 0E46     		mov	r6, r1
  66              	.LVL3:
 273:ESP8266.c     ****     const uint8_t EOP_found = 0x01; //no start of protocol
 274:ESP8266.c     ****     
 275:ESP8266.c     ****     uint16_t bytes_read = 0;
 276:ESP8266.c     ****     uint8_t status  = 0x00;
ARM GAS  C:\Users\Rahul\AppData\Local\Temp\ccIhg8OU.s 			page 7


  67              		.loc 1 276 0
  68 0006 0024     		movs	r4, #0
 275:ESP8266.c     ****     uint8_t status  = 0x00;
  69              		.loc 1 275 0
  70 0008 2246     		mov	r2, r4
  71 000a 00E0     		b	.L8
  72              	.LVL4:
  73              	.L12:
 277:ESP8266.c     ****     
 278:ESP8266.c     ****     /** This is a primitive implementation **/
 279:ESP8266.c     ****     do
 280:ESP8266.c     ****     {
 281:ESP8266.c     ****         if (*length == bytes_read)
 282:ESP8266.c     ****             return -3;
 283:ESP8266.c     **** 
 284:ESP8266.c     **** #if 0
 285:ESP8266.c     ****         while (WIFIdev_Channel_RX_STS_FIFO_NOTEMPTY != WIFIdev_Channel_GetRxInterruptSource());
 286:ESP8266.c     ****         buffer[bytes_read++] = WIFIdev_Channel_GetByte();
 287:ESP8266.c     **** #else
 288:ESP8266.c     ****         while (rx_buffer.mnCount <= 0);
 289:ESP8266.c     ****         buffer[bytes_read++] = rx_buffer.mpData[rx_buffer.mnRD];
  74              		.loc 1 289 0
  75 000c 3A46     		mov	r2, r7
  76              	.LVL5:
  77              	.L8:
 281:ESP8266.c     ****             return -3;
  78              		.loc 1 281 0
  79 000e 3388     		ldrh	r3, [r6]
  80 0010 9342     		cmp	r3, r2
  81 0012 34D0     		beq	.L9
  82              	.L5:
 288:ESP8266.c     ****         buffer[bytes_read++] = rx_buffer.mpData[rx_buffer.mnRD];
  83              		.loc 1 288 0 discriminator 1
  84 0014 1B4B     		ldr	r3, .L14
  85 0016 B3F80434 		ldrh	r3, [r3, #1028]
  86 001a 9BB2     		uxth	r3, r3
  87 001c 002B     		cmp	r3, #0
  88 001e F9D0     		beq	.L5
  89              		.loc 1 289 0
  90 0020 571C     		adds	r7, r2, #1
  91 0022 BFB2     		uxth	r7, r7
  92              	.LVL6:
  93 0024 174B     		ldr	r3, .L14
  94 0026 B3F80214 		ldrh	r1, [r3, #1026]
  95 002a 89B2     		uxth	r1, r1
  96 002c 595C     		ldrb	r1, [r3, r1]	@ zero_extendqisi2
  97 002e A954     		strb	r1, [r5, r2]
 290:ESP8266.c     ****         rx_buffer.mnRD = ((rx_buffer.mnRD + 1) > CIRCULAR_BUF_LEN) ? 0 : (rx_buffer.mnRD + 1);
  98              		.loc 1 290 0
  99 0030 B3F80234 		ldrh	r3, [r3, #1026]
 100 0034 9BB2     		uxth	r3, r3
 101 0036 0133     		adds	r3, r3, #1
 102 0038 B3F5806F 		cmp	r3, #1024
 103 003c 05DC     		bgt	.L10
 104              		.loc 1 290 0 is_stmt 0 discriminator 1
 105 003e 114B     		ldr	r3, .L14
 106 0040 B3F80234 		ldrh	r3, [r3, #1026]
ARM GAS  C:\Users\Rahul\AppData\Local\Temp\ccIhg8OU.s 			page 8


 107 0044 0133     		adds	r3, r3, #1
 108 0046 9BB2     		uxth	r3, r3
 109 0048 00E0     		b	.L6
 110              	.L10:
 111              		.loc 1 290 0
 112 004a 0023     		movs	r3, #0
 113              	.L6:
 114              		.loc 1 290 0 discriminator 4
 115 004c 0D4A     		ldr	r2, .L14
 116 004e A2F80234 		strh	r3, [r2, #1026]	@ movhi
 291:ESP8266.c     ****         rx_buffer.mnCount--;
 117              		.loc 1 291 0 is_stmt 1 discriminator 4
 118 0052 B2F80434 		ldrh	r3, [r2, #1028]
 119 0056 013B     		subs	r3, r3, #1
 120 0058 9BB2     		uxth	r3, r3
 121 005a A2F80434 		strh	r3, [r2, #1028]	@ movhi
 292:ESP8266.c     **** #endif
 293:ESP8266.c     ****         if ((bytes_read >= ESP8266_EOP_LEN) && ((status & EOP_found) == 0x00))
 122              		.loc 1 293 0 discriminator 4
 123 005e 012F     		cmp	r7, #1
 124 0060 08D9     		bls	.L7
 125              		.loc 1 293 0 is_stmt 0 discriminator 1
 126 0062 3CB9     		cbnz	r4, .L7
 294:ESP8266.c     ****         {
 295:ESP8266.c     ****             if (0 == strncmp((const char *)&buffer[bytes_read - ESP8266_EOP_LEN], ESP8266_EOP, ESP8
 127              		.loc 1 295 0 is_stmt 1
 128 0064 B81E     		subs	r0, r7, #2
 129 0066 2844     		add	r0, r0, r5
 130 0068 0749     		ldr	r1, .L14+4
 131 006a 0222     		movs	r2, #2
 132 006c FFF7FEFF 		bl	strncmp
 133              	.LVL7:
 134 0070 00B9     		cbnz	r0, .L7
 296:ESP8266.c     ****             {
 297:ESP8266.c     ****                status |= EOP_found ;
 135              		.loc 1 297 0
 136 0072 0124     		movs	r4, #1
 137              	.LVL8:
 138              	.L7:
 298:ESP8266.c     ****             }
 299:ESP8266.c     ****         }
 300:ESP8266.c     ****         
 301:ESP8266.c     ****     } while (EOP_found != (status & EOP_found));
 139              		.loc 1 301 0
 140 0074 002C     		cmp	r4, #0
 141 0076 C9D0     		beq	.L12
 302:ESP8266.c     ****     
 303:ESP8266.c     ****     *length = bytes_read;
 142              		.loc 1 303 0
 143 0078 3780     		strh	r7, [r6]	@ movhi
 304:ESP8266.c     ****     return 0;
 144              		.loc 1 304 0
 145 007a 0020     		movs	r0, #0
 146 007c F8BD     		pop	{r3, r4, r5, r6, r7, pc}
 147              	.LVL9:
 148              	.L9:
 282:ESP8266.c     **** 
ARM GAS  C:\Users\Rahul\AppData\Local\Temp\ccIhg8OU.s 			page 9


 149              		.loc 1 282 0
 150 007e 6FF00200 		mvn	r0, #2
 305:ESP8266.c     **** }
 151              		.loc 1 305 0
 152 0082 F8BD     		pop	{r3, r4, r5, r6, r7, pc}
 153              	.LVL10:
 154              	.L15:
 155              		.align	2
 156              	.L14:
 157 0084 00000000 		.word	rx_buffer
 158 0088 00000000 		.word	.LC0
 159              		.cfi_endproc
 160              	.LFE69:
 161              		.size	ESP8266_Read_Response, .-ESP8266_Read_Response
 162              		.section	.text.ESP8266_Check_Response,"ax",%progbits
 163              		.align	2
 164              		.thumb
 165              		.thumb_func
 166              		.type	ESP8266_Check_Response, %function
 167              	ESP8266_Check_Response:
 168              	.LFB70:
 306:ESP8266.c     **** 
 307:ESP8266.c     **** static int32_t ESP8266_Check_Response(uint8_t *buffer, uint16_t length, char *expected_resp)
 308:ESP8266.c     **** {
 169              		.loc 1 308 0
 170              		.cfi_startproc
 171              		@ args = 0, pretend = 0, frame = 0
 172              		@ frame_needed = 0, uses_anonymous_args = 0
 173              	.LVL11:
 309:ESP8266.c     ****     uint16_t  i = 0;
 310:ESP8266.c     ****     uint32_t  check_len = 0;
 311:ESP8266.c     ****     
 312:ESP8266.c     ****     if (NULL == expected_resp)
 174              		.loc 1 312 0
 175 0000 E2B1     		cbz	r2, .L20
 308:ESP8266.c     ****     uint16_t  i = 0;
 176              		.loc 1 308 0
 177 0002 2DE9F041 		push	{r4, r5, r6, r7, r8, lr}
 178              		.cfi_def_cfa_offset 24
 179              		.cfi_offset 4, -24
 180              		.cfi_offset 5, -20
 181              		.cfi_offset 6, -16
 182              		.cfi_offset 7, -12
 183              		.cfi_offset 8, -8
 184              		.cfi_offset 14, -4
 185 0006 1646     		mov	r6, r2
 186 0008 0C46     		mov	r4, r1
 187 000a 0746     		mov	r7, r0
 313:ESP8266.c     ****         return -1;
 314:ESP8266.c     ****     
 315:ESP8266.c     ****     check_len = strlen(expected_resp);
 188              		.loc 1 315 0
 189 000c 1046     		mov	r0, r2
 190              	.LVL12:
 191 000e FFF7FEFF 		bl	strlen
 192              	.LVL13:
 193 0012 0546     		mov	r5, r0
ARM GAS  C:\Users\Rahul\AppData\Local\Temp\ccIhg8OU.s 			page 10


 194              	.LVL14:
 316:ESP8266.c     **** 
 317:ESP8266.c     ****     if (length < check_len)
 195              		.loc 1 317 0
 196 0014 A046     		mov	r8, r4
 197 0016 8442     		cmp	r4, r0
 198 0018 13D3     		bcc	.L21
 199 001a 0024     		movs	r4, #0
 200 001c 07E0     		b	.L18
 201              	.LVL15:
 202              	.L19:
 318:ESP8266.c     ****         return 0;
 319:ESP8266.c     ****     
 320:ESP8266.c     ****     for (i = 0; i <= (length - check_len); i++)
 321:ESP8266.c     ****     {
 322:ESP8266.c     ****         if (0 == strncmp((const char*)buffer + i, expected_resp, check_len))
 203              		.loc 1 322 0
 204 001e 3819     		adds	r0, r7, r4
 205 0020 3146     		mov	r1, r6
 206 0022 2A46     		mov	r2, r5
 207 0024 FFF7FEFF 		bl	strncmp
 208              	.LVL16:
 209 0028 70B1     		cbz	r0, .L22
 320:ESP8266.c     ****     {
 210              		.loc 1 320 0 discriminator 2
 211 002a 0134     		adds	r4, r4, #1
 212              	.LVL17:
 213 002c A4B2     		uxth	r4, r4
 214              	.LVL18:
 215              	.L18:
 320:ESP8266.c     ****     {
 216              		.loc 1 320 0 is_stmt 0 discriminator 1
 217 002e C5EB0803 		rsb	r3, r5, r8
 218 0032 9C42     		cmp	r4, r3
 219 0034 F3D9     		bls	.L19
 323:ESP8266.c     ****             return 1;
 324:ESP8266.c     ****     }
 325:ESP8266.c     **** 
 326:ESP8266.c     ****     return 0;
 220              		.loc 1 326 0 is_stmt 1
 221 0036 0020     		movs	r0, #0
 222 0038 BDE8F081 		pop	{r4, r5, r6, r7, r8, pc}
 223              	.LVL19:
 224              	.L20:
 225              		.cfi_def_cfa_offset 0
 226              		.cfi_restore 4
 227              		.cfi_restore 5
 228              		.cfi_restore 6
 229              		.cfi_restore 7
 230              		.cfi_restore 8
 231              		.cfi_restore 14
 313:ESP8266.c     ****     
 232              		.loc 1 313 0
 233 003c 4FF0FF30 		mov	r0, #-1
 234              	.LVL20:
 327:ESP8266.c     **** }
 235              		.loc 1 327 0
ARM GAS  C:\Users\Rahul\AppData\Local\Temp\ccIhg8OU.s 			page 11


 236 0040 7047     		bx	lr
 237              	.LVL21:
 238              	.L21:
 239              		.cfi_def_cfa_offset 24
 240              		.cfi_offset 4, -24
 241              		.cfi_offset 5, -20
 242              		.cfi_offset 6, -16
 243              		.cfi_offset 7, -12
 244              		.cfi_offset 8, -8
 245              		.cfi_offset 14, -4
 318:ESP8266.c     ****     
 246              		.loc 1 318 0
 247 0042 0020     		movs	r0, #0
 248              	.LVL22:
 249 0044 BDE8F081 		pop	{r4, r5, r6, r7, r8, pc}
 250              	.LVL23:
 251              	.L22:
 323:ESP8266.c     ****     }
 252              		.loc 1 323 0
 253 0048 0120     		movs	r0, #1
 254              		.loc 1 327 0
 255 004a BDE8F081 		pop	{r4, r5, r6, r7, r8, pc}
 256              		.cfi_endproc
 257              	.LFE70:
 258              		.size	ESP8266_Check_Response, .-ESP8266_Check_Response
 259 004e 00BF     		.section	.text.ESP8266_Await_Response,"ax",%progbits
 260              		.align	2
 261              		.thumb
 262              		.thumb_func
 263              		.type	ESP8266_Await_Response, %function
 264              	ESP8266_Await_Response:
 265              	.LFB67:
 203:ESP8266.c     ****     uint16_t len = 0, i = 0;
 266              		.loc 1 203 0
 267              		.cfi_startproc
 268              		@ args = 0, pretend = 0, frame = 1032
 269              		@ frame_needed = 0, uses_anonymous_args = 0
 270              	.LVL24:
 271 0000 F0B5     		push	{r4, r5, r6, r7, lr}
 272              		.cfi_def_cfa_offset 20
 273              		.cfi_offset 4, -20
 274              		.cfi_offset 5, -16
 275              		.cfi_offset 6, -12
 276              		.cfi_offset 7, -8
 277              		.cfi_offset 14, -4
 278 0002 ADF20C4D 		subw	sp, sp, #1036
 279              		.cfi_def_cfa_offset 1056
 280 0006 0646     		mov	r6, r0
 281 0008 0F46     		mov	r7, r1
 282              	.LVL25:
 205:ESP8266.c     ****     
 283              		.loc 1 205 0
 284 000a 01A8     		add	r0, sp, #4
 285              	.LVL26:
 286 000c 0021     		movs	r1, #0
 287              	.LVL27:
 288 000e 4FF48062 		mov	r2, #1024
ARM GAS  C:\Users\Rahul\AppData\Local\Temp\ccIhg8OU.s 			page 12


 289 0012 FFF7FEFF 		bl	memset
 290              	.LVL28:
 291              	.L27:
 209:ESP8266.c     ****         
 292              		.loc 1 209 0
 293 0016 4FF48063 		mov	r3, #1024
 294 001a ADF80634 		strh	r3, [sp, #1030]	@ movhi
 211:ESP8266.c     ****         {
 295              		.loc 1 211 0
 296 001e 01A8     		add	r0, sp, #4
 297 0020 0DF20641 		addw	r1, sp, #1030
 298 0024 FFF7FEFF 		bl	ESP8266_Read_Response
 299              	.LVL29:
 300 0028 0546     		mov	r5, r0
 301 002a 18B1     		cbz	r0, .L25
 213:ESP8266.c     ****             break;
 302              		.loc 1 213 0
 303 002c 0E48     		ldr	r0, .L29
 304 002e FFF7FEFF 		bl	LOG_PutString
 305              	.LVL30:
 306 0032 15E0     		b	.L24
 307              	.L25:
 225:ESP8266.c     ****             {
 308              		.loc 1 225 0
 309 0034 BDF80644 		ldrh	r4, [sp, #1030]
 310 0038 01A8     		add	r0, sp, #4
 311 003a 2146     		mov	r1, r4
 312 003c 3246     		mov	r2, r6
 313 003e FFF7FEFF 		bl	ESP8266_Check_Response
 314              	.LVL31:
 315 0042 0128     		cmp	r0, #1
 316 0044 0BD0     		beq	.L26
 230:ESP8266.c     ****             {
 317              		.loc 1 230 0
 318 0046 01A8     		add	r0, sp, #4
 319 0048 2146     		mov	r1, r4
 320 004a 3A46     		mov	r2, r7
 321 004c FFF7FEFF 		bl	ESP8266_Check_Response
 322              	.LVL32:
 323 0050 0128     		cmp	r0, #1
 324 0052 E0D1     		bne	.L27
 232:ESP8266.c     ****                 return -1;
 325              		.loc 1 232 0
 326 0054 0548     		ldr	r0, .L29+4
 327 0056 FFF7FEFF 		bl	LOG_PutString
 328              	.LVL33:
 233:ESP8266.c     ****             }
 329              		.loc 1 233 0
 330 005a 4FF0FF35 		mov	r5, #-1
 331              	.L26:
 332 005e 2846     		mov	r0, r5
 333              	.L24:
 237:ESP8266.c     **** 
 334              		.loc 1 237 0
 335 0060 0DF20C4D 		addw	sp, sp, #1036
 336              		.cfi_def_cfa_offset 20
 337              		@ sp needed
ARM GAS  C:\Users\Rahul\AppData\Local\Temp\ccIhg8OU.s 			page 13


 338 0064 F0BD     		pop	{r4, r5, r6, r7, pc}
 339              	.LVL34:
 340              	.L30:
 341 0066 00BF     		.align	2
 342              	.L29:
 343 0068 04000000 		.word	.LC1
 344 006c 1C000000 		.word	.LC2
 345              		.cfi_endproc
 346              	.LFE67:
 347              		.size	ESP8266_Await_Response, .-ESP8266_Await_Response
 348              		.section	.text.ESP8266_SendData,"ax",%progbits
 349              		.align	2
 350              		.thumb
 351              		.thumb_func
 352              		.type	ESP8266_SendData, %function
 353              	ESP8266_SendData:
 354              	.LFB66:
 196:ESP8266.c     ****     WIFIdev_Channel_PutArray(buffer, length);
 355              		.loc 1 196 0
 356              		.cfi_startproc
 357              		@ args = 0, pretend = 0, frame = 0
 358              		@ frame_needed = 0, uses_anonymous_args = 0
 359              	.LVL35:
 360 0000 08B5     		push	{r3, lr}
 361              		.cfi_def_cfa_offset 8
 362              		.cfi_offset 3, -8
 363              		.cfi_offset 14, -4
 197:ESP8266.c     ****     
 364              		.loc 1 197 0
 365 0002 C9B2     		uxtb	r1, r1
 366              	.LVL36:
 367 0004 FFF7FEFF 		bl	WIFIdev_Channel_PutArray
 368              	.LVL37:
 200:ESP8266.c     **** 
 369              		.loc 1 200 0
 370 0008 0020     		movs	r0, #0
 371 000a 08BD     		pop	{r3, pc}
 372              		.cfi_endproc
 373              	.LFE66:
 374              		.size	ESP8266_SendData, .-ESP8266_SendData
 375              		.section	.text.ESP8266_Init,"ax",%progbits
 376              		.align	2
 377              		.global	ESP8266_Init
 378              		.thumb
 379              		.thumb_func
 380              		.type	ESP8266_Init, %function
 381              	ESP8266_Init:
 382              	.LFB63:
  43:ESP8266.c     ****     rx_buffer.mnWR      = 0;
 383              		.loc 1 43 0
 384              		.cfi_startproc
 385              		@ args = 0, pretend = 0, frame = 0
 386              		@ frame_needed = 0, uses_anonymous_args = 0
 387 0000 F8B5     		push	{r3, r4, r5, r6, r7, lr}
 388              		.cfi_def_cfa_offset 24
 389              		.cfi_offset 3, -24
 390              		.cfi_offset 4, -20
ARM GAS  C:\Users\Rahul\AppData\Local\Temp\ccIhg8OU.s 			page 14


 391              		.cfi_offset 5, -16
 392              		.cfi_offset 6, -12
 393              		.cfi_offset 7, -8
 394              		.cfi_offset 14, -4
  44:ESP8266.c     ****     rx_buffer.mnRD      = 0;
 395              		.loc 1 44 0
 396 0002 A64B     		ldr	r3, .L44
 397 0004 0022     		movs	r2, #0
 398 0006 A3F80024 		strh	r2, [r3, #1024]	@ movhi
  45:ESP8266.c     ****     rx_buffer.mnCount   = 0;
 399              		.loc 1 45 0
 400 000a A3F80224 		strh	r2, [r3, #1026]	@ movhi
  46:ESP8266.c     ****     
 401              		.loc 1 46 0
 402 000e A3F80424 		strh	r2, [r3, #1028]	@ movhi
  48:ESP8266.c     ****         
 403              		.loc 1 48 0
 404 0012 FFF7FEFF 		bl	WIFIdev_Channel_Start
 405              	.LVL38:
  50:ESP8266.c     ****     WIFIdev_Channel_ClearTxBuffer();
 406              		.loc 1 50 0
 407 0016 FFF7FEFF 		bl	WIFIdev_Channel_ClearRxBuffer
 408              	.LVL39:
  51:ESP8266.c     ****     
 409              		.loc 1 51 0
 410 001a FFF7FEFF 		bl	WIFIdev_Channel_ClearTxBuffer
 411              	.LVL40:
  53:ESP8266.c     ****     
 412              		.loc 1 53 0
 413 001e 0222     		movs	r2, #2
 414 0020 9F4B     		ldr	r3, .L44+4
 415 0022 1A60     		str	r2, [r3]
  55:ESP8266.c     ****     WIFIdev_Channel_RxISR_Enable();
 416              		.loc 1 55 0
 417 0024 FFF7FEFF 		bl	WIFIdev_Channel_RxISR_Start
 418              	.LVL41:
  56:ESP8266.c     ****        
 419              		.loc 1 56 0
 420 0028 FFF7FEFF 		bl	WIFIdev_Channel_RxISR_Enable
 421              	.LVL42:
  59:ESP8266.c     ****     
 422              		.loc 1 59 0
 423 002c 9D48     		ldr	r0, .L44+8
 424 002e FFF7FEFF 		bl	LOG_PutString
 425              	.LVL43:
  61:ESP8266.c     ****     strcat(cRequest, ESP8266_EOP);
 426              		.loc 1 61 0
 427 0032 9D4C     		ldr	r4, .L44+12
 428 0034 9D4B     		ldr	r3, .L44+16
 429 0036 1B68     		ldr	r3, [r3]
 430 0038 2380     		strh	r3, [r4]	@ movhi
 431 003a 1B0C     		lsrs	r3, r3, #16
 432 003c A370     		strb	r3, [r4, #2]
  62:ESP8266.c     ****     
 433              		.loc 1 62 0
 434 003e 2046     		mov	r0, r4
 435 0040 FFF7FEFF 		bl	strlen
ARM GAS  C:\Users\Rahul\AppData\Local\Temp\ccIhg8OU.s 			page 15


 436              	.LVL44:
 437 0044 2218     		adds	r2, r4, r0
 438 0046 9A4B     		ldr	r3, .L44+20
 439 0048 1988     		ldrh	r1, [r3]	@ unaligned
 440 004a 9B78     		ldrb	r3, [r3, #2]	@ zero_extendqisi2
 441 004c 2152     		strh	r1, [r4, r0]	@ unaligned
 442 004e 9370     		strb	r3, [r2, #2]
  64:ESP8266.c     ****     if (0 > ESP8266_Await_Response(RESPONSE_OK, RESPONSE_ERROR))
 443              		.loc 1 64 0
 444 0050 2046     		mov	r0, r4
 445 0052 FFF7FEFF 		bl	ESP8266_Request
 446              	.LVL45:
  65:ESP8266.c     ****     {
 447              		.loc 1 65 0
 448 0056 9748     		ldr	r0, .L44+24
 449 0058 9749     		ldr	r1, .L44+28
 450 005a FFF7FEFF 		bl	ESP8266_Await_Response
 451              	.LVL46:
 452 005e 0028     		cmp	r0, #0
 453 0060 05DA     		bge	.L34
  67:ESP8266.c     ****         return -1;
 454              		.loc 1 67 0
 455 0062 9648     		ldr	r0, .L44+32
 456 0064 FFF7FEFF 		bl	LOG_PutString
 457              	.LVL47:
  68:ESP8266.c     ****     }
 458              		.loc 1 68 0
 459 0068 4FF0FF30 		mov	r0, #-1
 460 006c F8BD     		pop	{r3, r4, r5, r6, r7, pc}
 461              	.L34:
  72:ESP8266.c     ****     
 462              		.loc 1 72 0
 463 006e 9448     		ldr	r0, .L44+36
 464 0070 FFF7FEFF 		bl	LOG_PutString
 465              	.LVL48:
  74:ESP8266.c     ****     strcat(cRequest, REQUEST_MODE_STA);
 466              		.loc 1 74 0
 467 0074 8C4C     		ldr	r4, .L44+12
 468 0076 934A     		ldr	r2, .L44+40
 469 0078 2346     		mov	r3, r4
 470 007a 07CA     		ldmia	r2, {r0, r1, r2}
 471 007c 03C3     		stmia	r3!, {r0, r1}
 472 007e 23F8022B 		strh	r2, [r3], #2	@ movhi
 473 0082 120C     		lsrs	r2, r2, #16
 474 0084 1A70     		strb	r2, [r3]
  75:ESP8266.c     ****     strcat(cRequest, ESP8266_EOP);
 475              		.loc 1 75 0
 476 0086 2046     		mov	r0, r4
 477 0088 FFF7FEFF 		bl	strlen
 478              	.LVL49:
 479 008c 8E4B     		ldr	r3, .L44+44
 480 008e 1B88     		ldrh	r3, [r3]	@ unaligned
 481 0090 2352     		strh	r3, [r4, r0]	@ unaligned
  76:ESP8266.c     ****     
 482              		.loc 1 76 0
 483 0092 2046     		mov	r0, r4
 484 0094 FFF7FEFF 		bl	strlen
ARM GAS  C:\Users\Rahul\AppData\Local\Temp\ccIhg8OU.s 			page 16


 485              	.LVL50:
 486 0098 2218     		adds	r2, r4, r0
 487 009a 854B     		ldr	r3, .L44+20
 488 009c 1988     		ldrh	r1, [r3]	@ unaligned
 489 009e 9B78     		ldrb	r3, [r3, #2]	@ zero_extendqisi2
 490 00a0 2152     		strh	r1, [r4, r0]	@ unaligned
 491 00a2 9370     		strb	r3, [r2, #2]
  78:ESP8266.c     ****     if (0 > ESP8266_Await_Response(RESPONSE_OK, RESPONSE_ERROR))
 492              		.loc 1 78 0
 493 00a4 2046     		mov	r0, r4
 494 00a6 FFF7FEFF 		bl	ESP8266_Request
 495              	.LVL51:
  79:ESP8266.c     ****     {
 496              		.loc 1 79 0
 497 00aa 8248     		ldr	r0, .L44+24
 498 00ac 8249     		ldr	r1, .L44+28
 499 00ae FFF7FEFF 		bl	ESP8266_Await_Response
 500              	.LVL52:
 501 00b2 0028     		cmp	r0, #0
 502 00b4 05DA     		bge	.L36
  81:ESP8266.c     ****         return -1;
 503              		.loc 1 81 0
 504 00b6 8548     		ldr	r0, .L44+48
 505 00b8 FFF7FEFF 		bl	LOG_PutString
 506              	.LVL53:
  82:ESP8266.c     ****     }
 507              		.loc 1 82 0
 508 00bc 4FF0FF30 		mov	r0, #-1
 509 00c0 F8BD     		pop	{r3, r4, r5, r6, r7, pc}
 510              	.L36:
  86:ESP8266.c     ****     
 511              		.loc 1 86 0
 512 00c2 8348     		ldr	r0, .L44+52
 513 00c4 FFF7FEFF 		bl	LOG_PutString
 514              	.LVL54:
  88:ESP8266.c     ****     strcat(cRequest, REQUEST_MODE_STA);
 515              		.loc 1 88 0
 516 00c8 774C     		ldr	r4, .L44+12
 517 00ca 824A     		ldr	r2, .L44+56
 518 00cc 2346     		mov	r3, r4
 519 00ce 07CA     		ldmia	r2, {r0, r1, r2}
 520 00d0 03C3     		stmia	r3!, {r0, r1}
 521 00d2 23F8022B 		strh	r2, [r3], #2	@ movhi
 522 00d6 120C     		lsrs	r2, r2, #16
 523 00d8 1A70     		strb	r2, [r3]
  89:ESP8266.c     ****     strcat(cRequest, REQUEST_FIELD_SEPARATOR);
 524              		.loc 1 89 0
 525 00da 2046     		mov	r0, r4
 526 00dc FFF7FEFF 		bl	strlen
 527              	.LVL55:
 528 00e0 794B     		ldr	r3, .L44+44
 529 00e2 1D88     		ldrh	r5, [r3]	@ unaligned
 530 00e4 2552     		strh	r5, [r4, r0]	@ unaligned
  90:ESP8266.c     ****     strcat(cRequest, REQUEST_DHCP_DISABLE);
 531              		.loc 1 90 0
 532 00e6 2046     		mov	r0, r4
 533 00e8 FFF7FEFF 		bl	strlen
ARM GAS  C:\Users\Rahul\AppData\Local\Temp\ccIhg8OU.s 			page 17


 534              	.LVL56:
 535 00ec 7A4B     		ldr	r3, .L44+60
 536 00ee 1B88     		ldrh	r3, [r3]	@ unaligned
 537 00f0 2352     		strh	r3, [r4, r0]	@ unaligned
  91:ESP8266.c     ****     strcat(cRequest, ESP8266_EOP);
 538              		.loc 1 91 0
 539 00f2 2046     		mov	r0, r4
 540 00f4 FFF7FEFF 		bl	strlen
 541              	.LVL57:
 542 00f8 2552     		strh	r5, [r4, r0]	@ unaligned
  92:ESP8266.c     ****     
 543              		.loc 1 92 0
 544 00fa 2046     		mov	r0, r4
 545 00fc FFF7FEFF 		bl	strlen
 546              	.LVL58:
 547 0100 2218     		adds	r2, r4, r0
 548 0102 6B4B     		ldr	r3, .L44+20
 549 0104 1988     		ldrh	r1, [r3]	@ unaligned
 550 0106 9B78     		ldrb	r3, [r3, #2]	@ zero_extendqisi2
 551 0108 2152     		strh	r1, [r4, r0]	@ unaligned
 552 010a 9370     		strb	r3, [r2, #2]
  94:ESP8266.c     ****     if (0 > ESP8266_Await_Response(RESPONSE_OK, RESPONSE_ERROR))
 553              		.loc 1 94 0
 554 010c 2046     		mov	r0, r4
 555 010e FFF7FEFF 		bl	ESP8266_Request
 556              	.LVL59:
  95:ESP8266.c     ****     {
 557              		.loc 1 95 0
 558 0112 6848     		ldr	r0, .L44+24
 559 0114 6849     		ldr	r1, .L44+28
 560 0116 FFF7FEFF 		bl	ESP8266_Await_Response
 561              	.LVL60:
 562 011a 0028     		cmp	r0, #0
 563 011c 05DA     		bge	.L37
  97:ESP8266.c     ****         return -1;
 564              		.loc 1 97 0
 565 011e 6F48     		ldr	r0, .L44+64
 566 0120 FFF7FEFF 		bl	LOG_PutString
 567              	.LVL61:
  98:ESP8266.c     ****     }
 568              		.loc 1 98 0
 569 0124 4FF0FF30 		mov	r0, #-1
 570 0128 F8BD     		pop	{r3, r4, r5, r6, r7, pc}
 571              	.L37:
 102:ESP8266.c     ****     
 572              		.loc 1 102 0
 573 012a 6D48     		ldr	r0, .L44+68
 574 012c FFF7FEFF 		bl	LOG_PutString
 575              	.LVL62:
 104:ESP8266.c     ****     strcat(cRequest, AP_SSID);
 576              		.loc 1 104 0
 577 0130 5D4C     		ldr	r4, .L44+12
 578 0132 6C4A     		ldr	r2, .L44+72
 579 0134 2346     		mov	r3, r4
 580 0136 07CA     		ldmia	r2, {r0, r1, r2}
 581 0138 03C3     		stmia	r3!, {r0, r1}
 582 013a 1A80     		strh	r2, [r3]	@ movhi
ARM GAS  C:\Users\Rahul\AppData\Local\Temp\ccIhg8OU.s 			page 18


 105:ESP8266.c     ****     strcat(cRequest, REQUEST_FIELD_SEPARATOR);
 583              		.loc 1 105 0
 584 013c 2046     		mov	r0, r4
 585 013e FFF7FEFF 		bl	strlen
 586              	.LVL63:
 587 0142 0546     		mov	r5, r0
 588 0144 2218     		adds	r2, r4, r0
 589 0146 684B     		ldr	r3, .L44+76
 590 0148 03CB     		ldmia	r3!, {r0, r1}
 591 014a 6051     		str	r0, [r4, r5]	@ unaligned
 592 014c 5160     		str	r1, [r2, #4]	@ unaligned
 593 014e 1988     		ldrh	r1, [r3]	@ unaligned
 594 0150 9B78     		ldrb	r3, [r3, #2]	@ zero_extendqisi2
 595 0152 1181     		strh	r1, [r2, #8]	@ unaligned
 596 0154 9372     		strb	r3, [r2, #10]
 106:ESP8266.c     ****     strcat(cRequest, AP_PASSWD);
 597              		.loc 1 106 0
 598 0156 2046     		mov	r0, r4
 599 0158 FFF7FEFF 		bl	strlen
 600              	.LVL64:
 601 015c 5E4B     		ldr	r3, .L44+60
 602 015e 1B88     		ldrh	r3, [r3]	@ unaligned
 603 0160 2352     		strh	r3, [r4, r0]	@ unaligned
 107:ESP8266.c     ****     strcat(cRequest, ESP8266_EOP);
 604              		.loc 1 107 0
 605 0162 2046     		mov	r0, r4
 606 0164 FFF7FEFF 		bl	strlen
 607              	.LVL65:
 608 0168 0746     		mov	r7, r0
 609 016a 2618     		adds	r6, r4, r0
 610 016c 5F4D     		ldr	r5, .L44+80
 611 016e 0FCD     		ldmia	r5!, {r0, r1, r2, r3}
 612 0170 E051     		str	r0, [r4, r7]	@ unaligned
 613 0172 7160     		str	r1, [r6, #4]	@ unaligned
 614 0174 B260     		str	r2, [r6, #8]	@ unaligned
 615 0176 F360     		str	r3, [r6, #12]	@ unaligned
 108:ESP8266.c     ****     
 616              		.loc 1 108 0
 617 0178 2046     		mov	r0, r4
 618 017a FFF7FEFF 		bl	strlen
 619              	.LVL66:
 620 017e 2218     		adds	r2, r4, r0
 621 0180 4B4B     		ldr	r3, .L44+20
 622 0182 1988     		ldrh	r1, [r3]	@ unaligned
 623 0184 9B78     		ldrb	r3, [r3, #2]	@ zero_extendqisi2
 624 0186 2152     		strh	r1, [r4, r0]	@ unaligned
 625 0188 9370     		strb	r3, [r2, #2]
 110:ESP8266.c     ****         
 626              		.loc 1 110 0
 627 018a 2046     		mov	r0, r4
 628 018c FFF7FEFF 		bl	ESP8266_Request
 629              	.LVL67:
 112:ESP8266.c     ****     {
 630              		.loc 1 112 0
 631 0190 5748     		ldr	r0, .L44+84
 632 0192 4949     		ldr	r1, .L44+28
 633 0194 FFF7FEFF 		bl	ESP8266_Await_Response
ARM GAS  C:\Users\Rahul\AppData\Local\Temp\ccIhg8OU.s 			page 19


 634              	.LVL68:
 635 0198 0028     		cmp	r0, #0
 636 019a 05DA     		bge	.L38
 114:ESP8266.c     ****         return -1;
 637              		.loc 1 114 0
 638 019c 5548     		ldr	r0, .L44+88
 639 019e FFF7FEFF 		bl	LOG_PutString
 640              	.LVL69:
 115:ESP8266.c     ****     }
 641              		.loc 1 115 0
 642 01a2 4FF0FF30 		mov	r0, #-1
 643 01a6 F8BD     		pop	{r3, r4, r5, r6, r7, pc}
 644              	.L38:
 118:ESP8266.c     ****     
 645              		.loc 1 118 0
 646 01a8 5348     		ldr	r0, .L44+92
 647 01aa FFF7FEFF 		bl	LOG_PutString
 648              	.LVL70:
 120:ESP8266.c     ****     {
 649              		.loc 1 120 0
 650 01ae 5348     		ldr	r0, .L44+96
 651 01b0 5349     		ldr	r1, .L44+100
 652 01b2 FFF7FEFF 		bl	ESP8266_Await_Response
 653              	.LVL71:
 654 01b6 0028     		cmp	r0, #0
 655 01b8 05DA     		bge	.L39
 122:ESP8266.c     ****         return -1;
 656              		.loc 1 122 0
 657 01ba 4E48     		ldr	r0, .L44+88
 658 01bc FFF7FEFF 		bl	LOG_PutString
 659              	.LVL72:
 123:ESP8266.c     ****     }
 660              		.loc 1 123 0
 661 01c0 4FF0FF30 		mov	r0, #-1
 662 01c4 F8BD     		pop	{r3, r4, r5, r6, r7, pc}
 663              	.L39:
 126:ESP8266.c     ****     
 664              		.loc 1 126 0
 665 01c6 4F48     		ldr	r0, .L44+104
 666 01c8 FFF7FEFF 		bl	LOG_PutString
 667              	.LVL73:
 128:ESP8266.c     ****     {
 668              		.loc 1 128 0
 669 01cc 3948     		ldr	r0, .L44+24
 670 01ce 4C49     		ldr	r1, .L44+100
 671 01d0 FFF7FEFF 		bl	ESP8266_Await_Response
 672              	.LVL74:
 673 01d4 0028     		cmp	r0, #0
 674 01d6 05DA     		bge	.L40
 130:ESP8266.c     ****         return -1;
 675              		.loc 1 130 0
 676 01d8 4648     		ldr	r0, .L44+88
 677 01da FFF7FEFF 		bl	LOG_PutString
 678              	.LVL75:
 131:ESP8266.c     ****     }
 679              		.loc 1 131 0
 680 01de 4FF0FF30 		mov	r0, #-1
ARM GAS  C:\Users\Rahul\AppData\Local\Temp\ccIhg8OU.s 			page 20


 681 01e2 F8BD     		pop	{r3, r4, r5, r6, r7, pc}
 682              	.L40:
 134:ESP8266.c     ****  
 683              		.loc 1 134 0
 684 01e4 4848     		ldr	r0, .L44+108
 685 01e6 FFF7FEFF 		bl	LOG_PutString
 686              	.LVL76:
 137:ESP8266.c     ****     
 687              		.loc 1 137 0
 688 01ea 4848     		ldr	r0, .L44+112
 689 01ec FFF7FEFF 		bl	LOG_PutString
 690              	.LVL77:
 139:ESP8266.c     ****     strcat(cRequest, TRANSPORT_TYPE);
 691              		.loc 1 139 0
 692 01f0 2D4C     		ldr	r4, .L44+12
 693 01f2 474B     		ldr	r3, .L44+116
 694 01f4 2546     		mov	r5, r4
 695 01f6 0FCB     		ldmia	r3, {r0, r1, r2, r3}
 696 01f8 07C5     		stmia	r5!, {r0, r1, r2}
 697 01fa 2B70     		strb	r3, [r5]
 140:ESP8266.c     ****     strcat(cRequest, REQUEST_FIELD_SEPARATOR);
 698              		.loc 1 140 0
 699 01fc 2046     		mov	r0, r4
 700 01fe FFF7FEFF 		bl	strlen
 701              	.LVL78:
 702 0202 0246     		mov	r2, r0
 703 0204 2118     		adds	r1, r4, r0
 704 0206 434B     		ldr	r3, .L44+120
 705 0208 1868     		ldr	r0, [r3]	@ unaligned
 706 020a A050     		str	r0, [r4, r2]	@ unaligned
 707 020c 9B88     		ldrh	r3, [r3, #4]	@ unaligned
 708 020e 8B80     		strh	r3, [r1, #4]	@ unaligned
 141:ESP8266.c     ****     strcat(cRequest, SERVER_ADDR);
 709              		.loc 1 141 0
 710 0210 2046     		mov	r0, r4
 711 0212 FFF7FEFF 		bl	strlen
 712              	.LVL79:
 713 0216 304B     		ldr	r3, .L44+60
 714 0218 1F88     		ldrh	r7, [r3]	@ unaligned
 715 021a 2752     		strh	r7, [r4, r0]	@ unaligned
 142:ESP8266.c     ****     strcat(cRequest, REQUEST_FIELD_SEPARATOR);
 716              		.loc 1 142 0
 717 021c 2046     		mov	r0, r4
 718 021e FFF7FEFF 		bl	strlen
 719              	.LVL80:
 720 0222 8646     		mov	lr, r0
 721 0224 2618     		adds	r6, r4, r0
 722 0226 3C4D     		ldr	r5, .L44+124
 723 0228 0FCD     		ldmia	r5!, {r0, r1, r2, r3}
 724 022a 44F80E00 		str	r0, [r4, lr]	@ unaligned
 725 022e 7160     		str	r1, [r6, #4]	@ unaligned
 726 0230 B260     		str	r2, [r6, #8]	@ unaligned
 727 0232 F360     		str	r3, [r6, #12]	@ unaligned
 143:ESP8266.c     ****     strcat(cRequest, SERVER_PORT);
 728              		.loc 1 143 0
 729 0234 2046     		mov	r0, r4
 730 0236 FFF7FEFF 		bl	strlen
ARM GAS  C:\Users\Rahul\AppData\Local\Temp\ccIhg8OU.s 			page 21


 731              	.LVL81:
 732 023a 2752     		strh	r7, [r4, r0]	@ unaligned
 144:ESP8266.c     ****     strcat(cRequest, ESP8266_EOP);
 733              		.loc 1 144 0
 734 023c 2046     		mov	r0, r4
 735 023e FFF7FEFF 		bl	strlen
 736              	.LVL82:
 737 0242 0246     		mov	r2, r0
 738 0244 2118     		adds	r1, r4, r0
 739 0246 354B     		ldr	r3, .L44+128
 740 0248 1868     		ldr	r0, [r3]	@ unaligned
 741 024a A050     		str	r0, [r4, r2]	@ unaligned
 742 024c 1B79     		ldrb	r3, [r3, #4]	@ zero_extendqisi2
 743 024e 0B71     		strb	r3, [r1, #4]
 145:ESP8266.c     ****     
 744              		.loc 1 145 0
 745 0250 2046     		mov	r0, r4
 746 0252 FFF7FEFF 		bl	strlen
 747              	.LVL83:
 748 0256 2218     		adds	r2, r4, r0
 749 0258 154B     		ldr	r3, .L44+20
 750 025a 1988     		ldrh	r1, [r3]	@ unaligned
 751 025c 9B78     		ldrb	r3, [r3, #2]	@ zero_extendqisi2
 752 025e 2152     		strh	r1, [r4, r0]	@ unaligned
 753 0260 9370     		strb	r3, [r2, #2]
 147:ESP8266.c     ****     if (0 > ESP8266_Await_Response(RESPONSE_TCP_CONNECTED, RESPONSE_ERROR))
 754              		.loc 1 147 0
 755 0262 2046     		mov	r0, r4
 756 0264 FFF7FEFF 		bl	ESP8266_Request
 757              	.LVL84:
 148:ESP8266.c     ****     {
 758              		.loc 1 148 0
 759 0268 2D48     		ldr	r0, .L44+132
 760 026a 1349     		ldr	r1, .L44+28
 761 026c FFF7FEFF 		bl	ESP8266_Await_Response
 762              	.LVL85:
 763 0270 0028     		cmp	r0, #0
 764 0272 05DA     		bge	.L41
 154:ESP8266.c     ****         return -1;
 765              		.loc 1 154 0
 766 0274 2B48     		ldr	r0, .L44+136
 767 0276 FFF7FEFF 		bl	LOG_PutString
 768              	.LVL86:
 155:ESP8266.c     ****     }
 769              		.loc 1 155 0
 770 027a 4FF0FF30 		mov	r0, #-1
 771 027e F8BD     		pop	{r3, r4, r5, r6, r7, pc}
 772              	.L41:
 158:ESP8266.c     ****     {
 773              		.loc 1 158 0
 774 0280 0C48     		ldr	r0, .L44+24
 775 0282 2949     		ldr	r1, .L44+140
 776 0284 FFF7FEFF 		bl	ESP8266_Await_Response
 777              	.LVL87:
 778 0288 0028     		cmp	r0, #0
 779 028a 05DA     		bge	.L42
 160:ESP8266.c     ****         return -1;
ARM GAS  C:\Users\Rahul\AppData\Local\Temp\ccIhg8OU.s 			page 22


 780              		.loc 1 160 0
 781 028c 2548     		ldr	r0, .L44+136
 782 028e FFF7FEFF 		bl	LOG_PutString
 783              	.LVL88:
 161:ESP8266.c     ****     }
 784              		.loc 1 161 0
 785 0292 4FF0FF30 		mov	r0, #-1
 786 0296 F8BD     		pop	{r3, r4, r5, r6, r7, pc}
 787              	.L42:
 164:ESP8266.c     **** }
 788              		.loc 1 164 0
 789 0298 0020     		movs	r0, #0
 165:ESP8266.c     **** 
 790              		.loc 1 165 0
 791 029a F8BD     		pop	{r3, r4, r5, r6, r7, pc}
 792              	.L45:
 793              		.align	2
 794              	.L44:
 795 029c 00000000 		.word	rx_buffer
 796 02a0 00E100E0 		.word	-536813312
 797 02a4 44000000 		.word	.LC3
 798 02a8 00000000 		.word	.LANCHOR0
 799 02ac 54000000 		.word	.LC4
 800 02b0 00000000 		.word	.LC0
 801 02b4 58000000 		.word	.LC5
 802 02b8 5C000000 		.word	.LC6
 803 02bc 64000000 		.word	.LC7
 804 02c0 78000000 		.word	.LC8
 805 02c4 88000000 		.word	.LC9
 806 02c8 94000000 		.word	.LC10
 807 02cc 98000000 		.word	.LC11
 808 02d0 B0000000 		.word	.LC12
 809 02d4 C0000000 		.word	.LC13
 810 02d8 CC000000 		.word	.LC14
 811 02dc D0000000 		.word	.LC15
 812 02e0 E8000000 		.word	.LC16
 813 02e4 F8000000 		.word	.LC17
 814 02e8 04010000 		.word	.LC18
 815 02ec 10010000 		.word	.LC19
 816 02f0 20010000 		.word	.LC20
 817 02f4 30010000 		.word	.LC21
 818 02f8 44010000 		.word	.LC22
 819 02fc 64010000 		.word	.LC23
 820 0300 70010000 		.word	.LC24
 821 0304 80010000 		.word	.LC25
 822 0308 9C010000 		.word	.LC26
 823 030c BC010000 		.word	.LC27
 824 0310 D0010000 		.word	.LC28
 825 0314 E0010000 		.word	.LC29
 826 0318 E8010000 		.word	.LC30
 827 031c F8010000 		.word	.LC31
 828 0320 00020000 		.word	.LC32
 829 0324 08020000 		.word	.LC33
 830 0328 20020000 		.word	.LC34
 831              		.cfi_endproc
 832              	.LFE63:
 833              		.size	ESP8266_Init, .-ESP8266_Init
ARM GAS  C:\Users\Rahul\AppData\Local\Temp\ccIhg8OU.s 			page 23


 834              		.section	.text.ESP8266_Send,"ax",%progbits
 835              		.align	2
 836              		.global	ESP8266_Send
 837              		.thumb
 838              		.thumb_func
 839              		.type	ESP8266_Send, %function
 840              	ESP8266_Send:
 841              	.LFB64:
 168:ESP8266.c     ****     sprintf(cRequest, "%s%d%s", REQUEST_CIPSEND, length, ESP8266_EOP);
 842              		.loc 1 168 0
 843              		.cfi_startproc
 844              		@ args = 0, pretend = 0, frame = 0
 845              		@ frame_needed = 0, uses_anonymous_args = 0
 846              	.LVL89:
 847 0000 70B5     		push	{r4, r5, r6, lr}
 848              		.cfi_def_cfa_offset 16
 849              		.cfi_offset 4, -16
 850              		.cfi_offset 5, -12
 851              		.cfi_offset 6, -8
 852              		.cfi_offset 14, -4
 853 0002 82B0     		sub	sp, sp, #8
 854              		.cfi_def_cfa_offset 24
 855 0004 0646     		mov	r6, r0
 856 0006 0C46     		mov	r4, r1
 169:ESP8266.c     ****     
 857              		.loc 1 169 0
 858 0008 154D     		ldr	r5, .L51
 859 000a 164B     		ldr	r3, .L51+4
 860 000c 0093     		str	r3, [sp]
 861 000e 2846     		mov	r0, r5
 862              	.LVL90:
 863 0010 1549     		ldr	r1, .L51+8
 864              	.LVL91:
 865 0012 164A     		ldr	r2, .L51+12
 866 0014 2346     		mov	r3, r4
 867 0016 FFF7FEFF 		bl	sprintf
 868              	.LVL92:
 171:ESP8266.c     ****     if (0 > ESP8266_Await_Response(RESPONSE_OK, RESPONSE_ERROR))
 869              		.loc 1 171 0
 870 001a 2846     		mov	r0, r5
 871 001c FFF7FEFF 		bl	ESP8266_Request
 872              	.LVL93:
 172:ESP8266.c     ****     {
 873              		.loc 1 172 0
 874 0020 1348     		ldr	r0, .L51+16
 875 0022 1449     		ldr	r1, .L51+20
 876 0024 FFF7FEFF 		bl	ESP8266_Await_Response
 877              	.LVL94:
 878 0028 0028     		cmp	r0, #0
 879 002a 05DA     		bge	.L47
 174:ESP8266.c     ****         return -1;
 880              		.loc 1 174 0
 881 002c 1248     		ldr	r0, .L51+24
 882 002e FFF7FEFF 		bl	LOG_PutString
 883              	.LVL95:
 175:ESP8266.c     ****     }
 884              		.loc 1 175 0
ARM GAS  C:\Users\Rahul\AppData\Local\Temp\ccIhg8OU.s 			page 24


 885 0032 4FF0FF30 		mov	r0, #-1
 886 0036 10E0     		b	.L48
 887              	.L47:
 178:ESP8266.c     ****     if (0 > ESP8266_Await_Response(RESPONSE_SEND_OK, RESPONSE_SEND_ERROR))
 888              		.loc 1 178 0
 889 0038 3046     		mov	r0, r6
 890 003a 2146     		mov	r1, r4
 891 003c FFF7FEFF 		bl	ESP8266_SendData
 892              	.LVL96:
 179:ESP8266.c     ****     {
 893              		.loc 1 179 0
 894 0040 0E48     		ldr	r0, .L51+28
 895 0042 0F49     		ldr	r1, .L51+32
 896 0044 FFF7FEFF 		bl	ESP8266_Await_Response
 897              	.LVL97:
 898 0048 0028     		cmp	r0, #0
 899 004a 05DA     		bge	.L49
 181:ESP8266.c     ****         return -1;
 900              		.loc 1 181 0
 901 004c 0A48     		ldr	r0, .L51+24
 902 004e FFF7FEFF 		bl	LOG_PutString
 903              	.LVL98:
 182:ESP8266.c     ****     }
 904              		.loc 1 182 0
 905 0052 4FF0FF30 		mov	r0, #-1
 906 0056 00E0     		b	.L48
 907              	.L49:
 185:ESP8266.c     **** }
 908              		.loc 1 185 0
 909 0058 2046     		mov	r0, r4
 910              	.L48:
 186:ESP8266.c     **** 
 911              		.loc 1 186 0
 912 005a 02B0     		add	sp, sp, #8
 913              		.cfi_def_cfa_offset 16
 914              		@ sp needed
 915 005c 70BD     		pop	{r4, r5, r6, pc}
 916              	.LVL99:
 917              	.L52:
 918 005e 00BF     		.align	2
 919              	.L51:
 920 0060 00000000 		.word	.LANCHOR0
 921 0064 00000000 		.word	.LC0
 922 0068 28020000 		.word	.LC35
 923 006c 30020000 		.word	.LC36
 924 0070 58000000 		.word	.LC5
 925 0074 5C000000 		.word	.LC6
 926 0078 3C020000 		.word	.LC37
 927 007c 54020000 		.word	.LC38
 928 0080 5C020000 		.word	.LC39
 929              		.cfi_endproc
 930              	.LFE64:
 931              		.size	ESP8266_Send, .-ESP8266_Send
 932              		.comm	rx_buffer,1030,4
 933              		.section	.rodata.str1.4,"aMS",%progbits,1
 934              		.align	2
 935              	.LC0:
ARM GAS  C:\Users\Rahul\AppData\Local\Temp\ccIhg8OU.s 			page 25


 936 0000 0D0A00   		.ascii	"\015\012\000"
 937 0003 00       		.space	1
 938              	.LC1:
 939 0004 0A5B5749 		.ascii	"\012[WIFIdev] Read Error\000"
 939      46496465 
 939      765D2052 
 939      65616420 
 939      4572726F 
 940 001a 0000     		.space	2
 941              	.LC2:
 942 001c 0A5B5749 		.ascii	"\012[WIFIdev] Recvd :  Negative Response\000"
 942      46496465 
 942      765D2052 
 942      65637664 
 942      203A2020 
 943 0042 0000     		.space	2
 944              	.LC3:
 945 0044 0A434D44 		.ascii	"\012CMD - AT...\000"
 945      202D2041 
 945      542E2E2E 
 945      00
 946 0051 000000   		.space	3
 947              	.LC4:
 948 0054 415400   		.ascii	"AT\000"
 949 0057 00       		.space	1
 950              	.LC5:
 951 0058 4F4B00   		.ascii	"OK\000"
 952 005b 00       		.space	1
 953              	.LC6:
 954 005c 4552524F 		.ascii	"ERROR\000"
 954      5200
 955 0062 0000     		.space	2
 956              	.LC7:
 957 0064 0A434D44 		.ascii	"\012CMD - AT - FAILED\000"
 957      202D2041 
 957      54202D20 
 957      4641494C 
 957      454400
 958 0077 00       		.space	1
 959              	.LC8:
 960 0078 0A434D44 		.ascii	"\012CMD - MODE...\000"
 960      202D204D 
 960      4F44452E 
 960      2E2E00
 961 0087 00       		.space	1
 962              	.LC9:
 963 0088 41542B43 		.ascii	"AT+CWMODE=\000"
 963      574D4F44 
 963      453D00
 964 0093 00       		.space	1
 965              	.LC10:
 966 0094 3100     		.ascii	"1\000"
 967 0096 0000     		.space	2
 968              	.LC11:
 969 0098 0A434D44 		.ascii	"\012CMD - MODE - FAILED\000"
 969      202D204D 
 969      4F444520 
ARM GAS  C:\Users\Rahul\AppData\Local\Temp\ccIhg8OU.s 			page 26


 969      2D204641 
 969      494C4544 
 970 00ad 000000   		.space	3
 971              	.LC12:
 972 00b0 0A434D44 		.ascii	"\012CMD - DHCP...\000"
 972      202D2044 
 972      4843502E 
 972      2E2E00
 973 00bf 00       		.space	1
 974              	.LC13:
 975 00c0 41542B43 		.ascii	"AT+CWDHCP=\000"
 975      57444843 
 975      503D00
 976 00cb 00       		.space	1
 977              	.LC14:
 978 00cc 2C00     		.ascii	",\000"
 979 00ce 0000     		.space	2
 980              	.LC15:
 981 00d0 0A434D44 		.ascii	"\012CMD - DHCP : FAILED\000"
 981      202D2044 
 981      48435020 
 981      3A204641 
 981      494C4544 
 982 00e5 000000   		.space	3
 983              	.LC16:
 984 00e8 0A434D44 		.ascii	"\012CMD - JAP...\000"
 984      202D204A 
 984      41502E2E 
 984      2E00
 985 00f6 0000     		.space	2
 986              	.LC17:
 987 00f8 41542B43 		.ascii	"AT+CWJAP=\000"
 987      574A4150 
 987      3D00
 988 0102 0000     		.space	2
 989              	.LC18:
 990 0104 22526168 		.ascii	"\"RahulRaj\"\000"
 990      756C5261 
 990      6A2200
 991 010f 00       		.space	1
 992              	.LC19:
 993 0110 22616C63 		.ascii	"\"alchemist@969\"\000"
 993      68656D69 
 993      73744039 
 993      36392200 
 994              	.LC20:
 995 0120 57494649 		.ascii	"WIFI CONNECTED\000"
 995      20434F4E 
 995      4E454354 
 995      454400
 996 012f 00       		.space	1
 997              	.LC21:
 998 0130 0A434D44 		.ascii	"\012CMD - JAP : FAILED\000"
 998      202D204A 
 998      4150203A 
 998      20464149 
 998      4C454400 
ARM GAS  C:\Users\Rahul\AppData\Local\Temp\ccIhg8OU.s 			page 27


 999              	.LC22:
 1000 0144 0A434D44 		.ascii	"\012CMD - JAP : Connected to AP\000"
 1000      202D204A 
 1000      4150203A 
 1000      20436F6E 
 1000      6E656374 
 1001 0161 000000   		.space	3
 1002              	.LC23:
 1003 0164 57494649 		.ascii	"WIFI GOT IP\000"
 1003      20474F54 
 1003      20495000 
 1004              	.LC24:
 1005 0170 57494649 		.ascii	"WIFI DISCONNECT\000"
 1005      20444953 
 1005      434F4E4E 
 1005      45435400 
 1006              	.LC25:
 1007 0180 0A434D44 		.ascii	"\012CMD - JAP : Acquired IP\000"
 1007      202D204A 
 1007      4150203A 
 1007      20416371 
 1007      75697265 
 1008 0199 000000   		.space	3
 1009              	.LC26:
 1010 019c 0A434D44 		.ascii	"\012CMD - JAP : Connection Stable\000"
 1010      202D204A 
 1010      4150203A 
 1010      20436F6E 
 1010      6E656374 
 1011 01bb 00       		.space	1
 1012              	.LC27:
 1013 01bc 0A434D44 		.ascii	"\012CMD - IPSTART...\000"
 1013      202D2049 
 1013      50535441 
 1013      52542E2E 
 1013      2E00
 1014 01ce 0000     		.space	2
 1015              	.LC28:
 1016 01d0 41542B43 		.ascii	"AT+CIPSTART=\000"
 1016      49505354 
 1016      4152543D 
 1016      00
 1017 01dd 000000   		.space	3
 1018              	.LC29:
 1019 01e0 22544350 		.ascii	"\"TCP\"\000"
 1019      2200
 1020 01e6 0000     		.space	2
 1021              	.LC30:
 1022 01e8 22313932 		.ascii	"\"192.168.100.5\"\000"
 1022      2E313638 
 1022      2E313030 
 1022      2E352200 
 1023              	.LC31:
 1024 01f8 31303234 		.ascii	"1024\000"
 1024      00
 1025 01fd 000000   		.space	3
 1026              	.LC32:
ARM GAS  C:\Users\Rahul\AppData\Local\Temp\ccIhg8OU.s 			page 28


 1027 0200 434F4E4E 		.ascii	"CONNECT\000"
 1027      45435400 
 1028              	.LC33:
 1029 0208 0A434D44 		.ascii	"\012CMD - IPSTART : FAILED\000"
 1029      202D2049 
 1029      50535441 
 1029      5254203A 
 1029      20464149 
 1030              	.LC34:
 1031 0220 434C4F53 		.ascii	"CLOSED\000"
 1031      454400
 1032 0227 00       		.space	1
 1033              	.LC35:
 1034 0228 25732564 		.ascii	"%s%d%s\000"
 1034      257300
 1035 022f 00       		.space	1
 1036              	.LC36:
 1037 0230 41542B43 		.ascii	"AT+CIPSEND=\000"
 1037      49505345 
 1037      4E443D00 
 1038              	.LC37:
 1039 023c 0A434D44 		.ascii	"\012CMD - SEND : FAILED\000"
 1039      202D2053 
 1039      454E4420 
 1039      3A204641 
 1039      494C4544 
 1040 0251 000000   		.space	3
 1041              	.LC38:
 1042 0254 53454E44 		.ascii	"SEND OK\000"
 1042      204F4B00 
 1043              	.LC39:
 1044 025c 53454E44 		.ascii	"SEND FAIL\000"
 1044      20464149 
 1044      4C00
 1045 0266 0000     		.bss
 1046              		.align	2
 1047              		.set	.LANCHOR0,. + 0
 1048              		.type	cRequest, %object
 1049              		.size	cRequest, 1024
 1050              	cRequest:
 1051 0000 00000000 		.space	1024
 1051      00000000 
 1051      00000000 
 1051      00000000 
 1051      00000000 
 1052              		.text
 1053              	.Letext0:
 1054              		.file 2 "c:\\program files (x86)\\cypress\\psoc creator\\4.0\\psoc creator\\import\\gnu\\arm\\4.9.
 1055              		.file 3 "c:\\program files (x86)\\cypress\\psoc creator\\4.0\\psoc creator\\import\\gnu\\arm\\4.9.
 1056              		.file 4 "c:\\program files (x86)\\cypress\\psoc creator\\4.0\\psoc creator\\import\\gnu\\arm\\4.9.
 1057              		.file 5 "ESP8266.h"
 1058              		.file 6 "Generated_Source\\PSoC5/cytypes.h"
 1059              		.file 7 "Generated_Source\\PSoC5/core_cm3.h"
 1060              		.file 8 "c:\\program files (x86)\\cypress\\psoc creator\\4.0\\psoc creator\\import\\gnu\\arm\\4.9.
 1061              		.file 9 "Generated_Source\\PSoC5/WIFIdev_Channel.h"
 1062              		.file 10 "Generated_Source\\PSoC5/LOG.h"
 1063              		.file 11 "Generated_Source\\PSoC5/WIFIdev_Channel_RxISR.h"
ARM GAS  C:\Users\Rahul\AppData\Local\Temp\ccIhg8OU.s 			page 29


 1064              		.file 12 "c:\\program files (x86)\\cypress\\psoc creator\\4.0\\psoc creator\\import\\gnu\\arm\\4.9
 1065              		.file 13 "<built-in>"