ARM GAS  C:\Users\Rahul\AppData\Local\Temp\ccMB0OIE.s 			page 1


   1              		.syntax unified
   2              		.cpu cortex-m3
   3              		.fpu softvfp
   4              		.eabi_attribute 20, 1
   5              		.eabi_attribute 21, 1
   6              		.eabi_attribute 23, 3
   7              		.eabi_attribute 24, 1
   8              		.eabi_attribute 25, 1
   9              		.eabi_attribute 26, 1
  10              		.eabi_attribute 30, 1
  11              		.eabi_attribute 34, 1
  12              		.eabi_attribute 18, 4
  13              		.thumb
  14              		.file	"main.c"
  15              		.text
  16              	.Ltext0:
  17              		.cfi_sections	.debug_frame
  18              		.section	.text.main,"ax",%progbits
  19              		.align	2
  20              		.global	main
  21              		.thumb
  22              		.thumb_func
  23              		.type	main, %function
  24              	main:
  25              	.LFB63:
  26              		.file 1 "main.c"
   1:main.c        **** /* ========================================
   2:main.c        ****  *
   3:main.c        ****  * Copyright YOUR COMPANY, THE YEAR
   4:main.c        ****  * All Rights Reserved
   5:main.c        ****  * UNPUBLISHED, LICENSED SOFTWARE.
   6:main.c        ****  *
   7:main.c        ****  * CONFIDENTIAL AND PROPRIETARY INFORMATION
   8:main.c        ****  * WHICH IS THE PROPERTY OF your company.
   9:main.c        ****  *
  10:main.c        ****  * ========================================
  11:main.c        **** */
  12:main.c        **** #include "project.h"
  13:main.c        **** #include "ESP8266.h"
  14:main.c        **** 
  15:main.c        **** int main(void)
  16:main.c        **** {
  27              		.loc 1 16 0
  28              		.cfi_startproc
  29              		@ args = 0, pretend = 0, frame = 16
  30              		@ frame_needed = 0, uses_anonymous_args = 0
  31 0000 30B5     		push	{r4, r5, lr}
  32              		.cfi_def_cfa_offset 12
  33              		.cfi_offset 4, -12
  34              		.cfi_offset 5, -8
  35              		.cfi_offset 14, -4
  36 0002 85B0     		sub	sp, sp, #20
  37              		.cfi_def_cfa_offset 32
  17:main.c        ****     CyGlobalIntEnable; /* Enable global interrupts. */
  38              		.loc 1 17 0
  39              	@ 17 "main.c" 1
  40 0004 62B6     		CPSIE   i
ARM GAS  C:\Users\Rahul\AppData\Local\Temp\ccMB0OIE.s 			page 2


  41              	@ 0 "" 2
  42              	.LVL0:
  18:main.c        **** 
  19:main.c        ****     /* Place your initialization/startup code here (e.g. MyInst_Start()) */
  20:main.c        ****     uint16_t inc_counter = 0x0000,
  21:main.c        ****              dec_counter = 0xFFFF;
  22:main.c        ****     
  23:main.c        ****     uint8_t buffer[10] = {0};
  43              		.loc 1 23 0
  44              		.thumb
  45 0006 0023     		movs	r3, #0
  46 0008 0193     		str	r3, [sp, #4]
  47 000a 0293     		str	r3, [sp, #8]
  48 000c ADF80C30 		strh	r3, [sp, #12]	@ movhi
  24:main.c        ****     
  25:main.c        ****     
  26:main.c        ****     LOG_Start();
  49              		.loc 1 26 0
  50 0010 FFF7FEFF 		bl	LOG_Start
  51              	.LVL1:
  27:main.c        ****     
  28:main.c        ****     CyDelay(3000);
  52              		.loc 1 28 0
  53 0014 40F6B830 		movw	r0, #3000
  54 0018 FFF7FEFF 		bl	CyDelay
  55              	.LVL2:
  29:main.c        ****     
  30:main.c        ****      LOG_ClearTxBuffer();
  56              		.loc 1 30 0
  57 001c FFF7FEFF 		bl	LOG_ClearTxBuffer
  58              	.LVL3:
  31:main.c        ****     
  32:main.c        ****     LOG_PutString("\nInitializing ESP8266...");
  59              		.loc 1 32 0
  60 0020 1B48     		ldr	r0, .L7
  61 0022 FFF7FEFF 		bl	LOG_PutString
  62              	.LVL4:
  33:main.c        ****     
  34:main.c        ****     if (0 > ESP8266_Init())
  63              		.loc 1 34 0
  64 0026 FFF7FEFF 		bl	ESP8266_Init
  65              	.LVL5:
  66 002a 0028     		cmp	r0, #0
  67 002c 28DB     		blt	.L5
  35:main.c        ****     {
  36:main.c        ****         LOG_PutString("\nESP8266 Initialization Failed!");
  37:main.c        ****         return -1;
  38:main.c        ****     }
  39:main.c        ****     
  40:main.c        ****     LOG_PutString("\nESP8266 Initialized!");
  68              		.loc 1 40 0
  69 002e 1948     		ldr	r0, .L7+4
  70 0030 FFF7FEFF 		bl	LOG_PutString
  71              	.LVL6:
  21:main.c        ****     
  72              		.loc 1 21 0
  73 0034 4FF6FF75 		movw	r5, #65535
ARM GAS  C:\Users\Rahul\AppData\Local\Temp\ccMB0OIE.s 			page 3


  20:main.c        ****              dec_counter = 0xFFFF;
  74              		.loc 1 20 0
  75 0038 0024     		movs	r4, #0
  76              	.LVL7:
  77              	.L3:
  41:main.c        ****     
  42:main.c        ****     for (;;)
  43:main.c        ****     {
  44:main.c        ****         /* Place your application code here. */
  45:main.c        ****             CyDelay(1000);
  78              		.loc 1 45 0 discriminator 1
  79 003a 4FF47A70 		mov	r0, #1000
  80 003e FFF7FEFF 		bl	CyDelay
  81              	.LVL8:
  46:main.c        ****             
  47:main.c        ****             inc_counter++;
  82              		.loc 1 47 0 discriminator 1
  83 0042 0134     		adds	r4, r4, #1
  84              	.LVL9:
  85 0044 A4B2     		uxth	r4, r4
  86              	.LVL10:
  48:main.c        ****             dec_counter--;
  87              		.loc 1 48 0 discriminator 1
  88 0046 013D     		subs	r5, r5, #1
  89              	.LVL11:
  90 0048 ADB2     		uxth	r5, r5
  91              	.LVL12:
  49:main.c        ****         
  50:main.c        ****             //Network order - Big Endian
  51:main.c        ****             LOG_PutString("\nSending...!");
  92              		.loc 1 51 0 discriminator 1
  93 004a 1348     		ldr	r0, .L7+8
  94 004c FFF7FEFF 		bl	LOG_PutString
  95              	.LVL13:
  52:main.c        ****             
  53:main.c        ****             buffer[0] = 'i';
  96              		.loc 1 53 0 discriminator 1
  97 0050 6923     		movs	r3, #105
  98 0052 8DF80430 		strb	r3, [sp, #4]
  54:main.c        ****             buffer[1] = ((inc_counter >> 8) & 0xFF);
  99              		.loc 1 54 0 discriminator 1
 100 0056 230A     		lsrs	r3, r4, #8
 101 0058 8DF80530 		strb	r3, [sp, #5]
  55:main.c        ****             buffer[2] = (inc_counter & 0xFF);
 102              		.loc 1 55 0 discriminator 1
 103 005c 8DF80640 		strb	r4, [sp, #6]
  56:main.c        ****             
  57:main.c        ****             buffer[3] = 'd';
 104              		.loc 1 57 0 discriminator 1
 105 0060 6423     		movs	r3, #100
 106 0062 8DF80730 		strb	r3, [sp, #7]
  58:main.c        ****             buffer[4] = ((dec_counter >> 8) & 0xFF);
 107              		.loc 1 58 0 discriminator 1
 108 0066 2B0A     		lsrs	r3, r5, #8
 109 0068 8DF80830 		strb	r3, [sp, #8]
  59:main.c        ****             buffer[5] = (dec_counter & 0xFF);
 110              		.loc 1 59 0 discriminator 1
ARM GAS  C:\Users\Rahul\AppData\Local\Temp\ccMB0OIE.s 			page 4


 111 006c 8DF80950 		strb	r5, [sp, #9]
  60:main.c        **** 
  61:main.c        ****             ESP8266_Send(buffer, 6);
 112              		.loc 1 61 0 discriminator 1
 113 0070 01A8     		add	r0, sp, #4
 114 0072 0621     		movs	r1, #6
 115 0074 FFF7FEFF 		bl	ESP8266_Send
 116              	.LVL14:
  62:main.c        ****             
  63:main.c        ****             LOG_PutString("\nSent!");
 117              		.loc 1 63 0 discriminator 1
 118 0078 0848     		ldr	r0, .L7+12
 119 007a FFF7FEFF 		bl	LOG_PutString
 120              	.LVL15:
  64:main.c        ****     
  65:main.c        ****     }
 121              		.loc 1 65 0 discriminator 1
 122 007e DCE7     		b	.L3
 123              	.LVL16:
 124              	.L5:
  36:main.c        ****         return -1;
 125              		.loc 1 36 0
 126 0080 0748     		ldr	r0, .L7+16
 127 0082 FFF7FEFF 		bl	LOG_PutString
 128              	.LVL17:
  66:main.c        **** }
 129              		.loc 1 66 0
 130 0086 4FF0FF30 		mov	r0, #-1
 131 008a 05B0     		add	sp, sp, #20
 132              		.cfi_def_cfa_offset 12
 133              		@ sp needed
 134 008c 30BD     		pop	{r4, r5, pc}
 135              	.L8:
 136 008e 00BF     		.align	2
 137              	.L7:
 138 0090 00000000 		.word	.LC0
 139 0094 3C000000 		.word	.LC2
 140 0098 54000000 		.word	.LC3
 141 009c 64000000 		.word	.LC4
 142 00a0 1C000000 		.word	.LC1
 143              		.cfi_endproc
 144              	.LFE63:
 145              		.size	main, .-main
 146              		.section	.rodata.str1.4,"aMS",%progbits,1
 147              		.align	2
 148              	.LC0:
 149 0000 0A496E69 		.ascii	"\012Initializing ESP8266...\000"
 149      7469616C 
 149      697A696E 
 149      67204553 
 149      50383236 
 150 0019 000000   		.space	3
 151              	.LC1:
 152 001c 0A455350 		.ascii	"\012ESP8266 Initialization Failed!\000"
 152      38323636 
 152      20496E69 
 152      7469616C 
ARM GAS  C:\Users\Rahul\AppData\Local\Temp\ccMB0OIE.s 			page 5


 152      697A6174 
 153              	.LC2:
 154 003c 0A455350 		.ascii	"\012ESP8266 Initialized!\000"
 154      38323636 
 154      20496E69 
 154      7469616C 
 154      697A6564 
 155 0052 0000     		.space	2
 156              	.LC3:
 157 0054 0A53656E 		.ascii	"\012Sending...!\000"
 157      64696E67 
 157      2E2E2E21 
 157      00
 158 0061 000000   		.space	3
 159              	.LC4:
 160 0064 0A53656E 		.ascii	"\012Sent!\000"
 160      742100
 161 006b 00       		.text
 162              	.Letext0:
 163              		.file 2 "c:\\program files (x86)\\cypress\\psoc creator\\4.0\\psoc creator\\import\\gnu\\arm\\4.9.
 164              		.file 3 "c:\\program files (x86)\\cypress\\psoc creator\\4.0\\psoc creator\\import\\gnu\\arm\\4.9.
 165              		.file 4 "Generated_Source\\PSoC5/cytypes.h"
 166              		.file 5 "Generated_Source\\PSoC5/LOG.h"
 167              		.file 6 "Generated_Source\\PSoC5/CyLib.h"
 168              		.file 7 "ESP8266.h"
 169              		.file 8 "Generated_Source\\PSoC5/core_cm3.h"